target datalayout = "e-m:e-p270:32:32-p271:32:32-p272:64:64-i64:64-i128:128-f80:128-n8:16:32:64-S128"
target triple = "x86_64-pc-linux-gnu"

%struct.obj_name_st = type { i32, i32, ptr, ptr }

; Function Attrs: nounwind uwtable
define internal void @get_legacy_md_names(ptr noundef %0, ptr noundef %1) #0 {
  %3 = alloca ptr, align 8
  %4 = alloca ptr, align 8
  %5 = alloca ptr, align 8
  store ptr %0, ptr %3, align 8, !tbaa !45
  store ptr %1, ptr %4, align 8, !tbaa !20
  call void @llvm.lifetime.start.p0(i64 8, ptr %5) #7
  %6 = load ptr, ptr %3, align 8, !tbaa !45
  %7 = getelementptr inbounds nuw %struct.obj_name_st, ptr %6, i32 0, i32 2
  %8 = load ptr, ptr %7, align 8, !tbaa !47
  %9 = load ptr, ptr %3, align 8, !tbaa !45
  %10 = getelementptr inbounds nuw %struct.obj_name_st, ptr %9, i32 0, i32 0
  %11 = load i32, ptr %10, align 8, !tbaa !49
  %12 = call ptr @OBJ_NAME_get(ptr noundef %8, i32 noundef %11)
  store ptr %12, ptr %5, align 8, !tbaa !52
  %13 = load ptr, ptr %5, align 8, !tbaa !52
  %14 = icmp ne ptr %13, null
  br i1 %14, label %15, label %19

15:                                               ; preds = %2
  %16 = load ptr, ptr %5, align 8, !tbaa !52
  %17 = call i32 @EVP_MD_get_type(ptr noundef %16)
  %18 = load ptr, ptr %4, align 8, !tbaa !20
  call void @get_legacy_evp_names(i32 noundef 0, i32 noundef %17, ptr noundef null, ptr noundef %18)
  br label %19

19:                                               ; preds = %15, %2
  call void @llvm.lifetime.end.p0(i64 8, ptr %5) #7
  ret void
}