; Function Attrs: nounwind uwtable
define internal void @get_legacy_md_names(ptr noundef readonly captures(none) %0, ptr noundef captures(address) %1) #0 {
  %3 = getelementptr inbounds nuw i8, ptr %0, i64 8
  %4 = load ptr, ptr %3, align 8, !tbaa !34
  %5 = load i32, ptr %0, align 8, !tbaa !36
  %6 = tail call ptr @OBJ_NAME_get(ptr noundef %4, i32 noundef %5) #6
  %.not = icmp eq ptr %6, null
  br i1 %.not, label %9, label %7

7:                                                ; preds = %2
  %8 = tail call i32 @EVP_MD_get_type(ptr noundef nonnull %6) #6
  tail call fastcc void @get_legacy_evp_names(i32 noundef 0, i32 noundef %8, ptr noundef null, ptr noundef %1)
  br label %9

9:                                                ; preds = %7, %2
  ret void
}